; Function Attrs: nounwind uwtable
define range(i32 0, 2) i32 @BIO_closesocket(i32 noundef %0) local_unnamed_addr #0 {
  %2 = icmp slt i32 %0, 0
  br i1 %2, label %6, label %3

3:                                                ; preds = %1
  %4 = tail call i32 @close(i32 noundef %0) #5
  %5 = icmp sgt i32 %4, -1
  %spec.select = zext i1 %5 to i32
  br label %6

6:                                                ; preds = %3, %1
  %.0 = phi i32 [ 0, %1 ], [ %spec.select, %3 ]
  ret i32 %.0
}